target datalayout = "e-m:e-p270:32:32-p271:32:32-p272:64:64-i64:64-i128:128-f80:128-n8:16:32:64-S128"
target triple = "x86_64-pc-linux-gnu"

; Function Attrs: nounwind sspstrong uwtable
define internal i32 @mbc_enc_len(ptr noundef %0, ptr noundef %1, ptr noundef %2) #0 {
  %4 = alloca i32, align 4
  %5 = alloca ptr, align 8
  %6 = alloca ptr, align 8
  %7 = alloca ptr, align 8
  %8 = alloca i32, align 4
  %9 = alloca i32, align 4
  %10 = alloca i32, align 4
  store ptr %0, ptr %5, align 8, !tbaa !13
  store ptr %1, ptr %6, align 8, !tbaa !13
  store ptr %2, ptr %7, align 8, !tbaa !14
  call void @llvm.lifetime.start.p0(i64 4, ptr %8) #4
  %11 = load ptr, ptr %5, align 8, !tbaa !13
  %12 = getelementptr inbounds nuw i8, ptr %11, i32 1
  store ptr %12, ptr %5, align 8, !tbaa !13
  %13 = load i8, ptr %11, align 1, !tbaa !16
  %14 = zext i8 %13 to i32
  store i32 %14, ptr %8, align 4, !tbaa !17
  call void @llvm.lifetime.start.p0(i64 4, ptr %9) #4
  %15 = load i32, ptr %8, align 4, !tbaa !17
  %16 = sext i32 %15 to i64
  %17 = getelementptr inbounds [256 x i8], ptr @trans, i64 0, i64 %16
  %18 = load i8, ptr %17, align 1, !tbaa !16
  %19 = sext i8 %18 to i32
  store i32 %19, ptr %9, align 4, !tbaa !17
  %20 = load i32, ptr %9, align 4, !tbaa !17
  %21 = icmp slt i32 %20, 0
  br i1 %21, label %22, label %26

22:                                               ; preds = %3
  %23 = load i32, ptr %9, align 4, !tbaa !17
  %24 = icmp eq i32 %23, -1
  %25 = select i1 %24, i32 1, i32 -1
  store i32 %25, ptr %4, align 4
  store i32 1, ptr %10, align 4
  br label %51

26:                                               ; preds = %3
  %27 = load ptr, ptr %5, align 8, !tbaa !13
  %28 = load ptr, ptr %6, align 8, !tbaa !13
  %29 = icmp eq ptr %27, %28
  br i1 %29, label %30, label %37

30:                                               ; preds = %26
  %31 = load i32, ptr %8, align 4, !tbaa !17
  %32 = sext i32 %31 to i64
  %33 = getelementptr inbounds [256 x i32], ptr @EncLen_SJIS, i64 0, i64 %32
  %34 = load i32, ptr %33, align 4, !tbaa !17
  %35 = sub nsw i32 %34, 1
  %36 = sub nsw i32 -1, %35
  store i32 %36, ptr %4, align 4
  store i32 1, ptr %10, align 4
  br label %51

37:                                               ; preds = %26
  %38 = load i32, ptr %9, align 4, !tbaa !17
  %39 = sext i32 %38 to i64
  %40 = getelementptr inbounds [2 x [256 x i8]], ptr @trans, i64 0, i64 %39
  %41 = load ptr, ptr %5, align 8, !tbaa !13
  %42 = getelementptr inbounds nuw i8, ptr %41, i32 1
  store ptr %42, ptr %5, align 8, !tbaa !13
  %43 = load i8, ptr %41, align 1, !tbaa !16
  %44 = zext i8 %43 to i64
  %45 = getelementptr inbounds nuw [256 x i8], ptr %40, i64 0, i64 %44
  %46 = load i8, ptr %45, align 1, !tbaa !16
  %47 = sext i8 %46 to i32
  store i32 %47, ptr %9, align 4, !tbaa !17
  %48 = load i32, ptr %9, align 4, !tbaa !17
  %49 = icmp eq i32 %48, -1
  %50 = select i1 %49, i32 2, i32 -1
  store i32 %50, ptr %4, align 4
  store i32 1, ptr %10, align 4
  br label %51

51:                                               ; preds = %37, %30, %22
  call void @llvm.lifetime.end.p0(i64 4, ptr %9) #4
  call void @llvm.lifetime.end.p0(i64 4, ptr %8) #4
  %52 = load i32, ptr %4, align 4
  ret i32 %52
}

; Function Attrs: nounwind sspstrong uwtable
define internal ptr @left_adjust_char_head(ptr noundef %0, ptr noundef %1, ptr noundef %2, ptr noundef %3) #0 {
  %5 = alloca ptr, align 8
  %6 = alloca ptr, align 8
  %7 = alloca ptr, align 8
  %8 = alloca ptr, align 8
  %9 = alloca ptr, align 8
  %10 = alloca ptr, align 8
  %11 = alloca i32, align 4
  %12 = alloca i32, align 4
  store ptr %0, ptr %6, align 8, !tbaa !13
  store ptr %1, ptr %7, align 8, !tbaa !13
  store ptr %2, ptr %8, align 8, !tbaa !13
  store ptr %3, ptr %9, align 8, !tbaa !14
  call void @llvm.lifetime.start.p0(i64 8, ptr %10) #4
  call void @llvm.lifetime.start.p0(i64 4, ptr %11) #4
  %13 = load ptr, ptr %7, align 8, !tbaa !13
  %14 = load ptr, ptr %6, align 8, !tbaa !13
  %15 = icmp ule ptr %13, %14
  br i1 %15, label %16, label %18

16:                                               ; preds = %4
  %17 = load ptr, ptr %7, align 8, !tbaa !13
  store ptr %17, ptr %5, align 8
  store i32 1, ptr %12, align 4
  br label %70

18:                                               ; preds = %4
  %19 = load ptr, ptr %7, align 8, !tbaa !13
  store ptr %19, ptr %10, align 8, !tbaa !13
  %20 = load ptr, ptr %10, align 8, !tbaa !13
  %21 = load i8, ptr %20, align 1, !tbaa !16
  %22 = zext i8 %21 to i64
  %23 = getelementptr inbounds nuw [256 x i8], ptr @SJIS_CAN_BE_TRAIL_TABLE, i64 0, i64 %22
  %24 = load i8, ptr %23, align 1, !tbaa !16
  %25 = icmp ne i8 %24, 0
  br i1 %25, label %26, label %44

26:                                               ; preds = %18
  br label %27

27:                                               ; preds = %42, %26
  %28 = load ptr, ptr %10, align 8, !tbaa !13
  %29 = load ptr, ptr %6, align 8, !tbaa !13
  %30 = icmp ugt ptr %28, %29
  br i1 %30, label %31, label %43

31:                                               ; preds = %27
  %32 = load ptr, ptr %10, align 8, !tbaa !13
  %33 = getelementptr inbounds i8, ptr %32, i32 -1
  store ptr %33, ptr %10, align 8, !tbaa !13
  %34 = load i8, ptr %33, align 1, !tbaa !16
  %35 = zext i8 %34 to i64
  %36 = getelementptr inbounds nuw [256 x i32], ptr @EncLen_SJIS, i64 0, i64 %35
  %37 = load i32, ptr %36, align 4, !tbaa !17
  %38 = icmp sgt i32 %37, 1
  br i1 %38, label %42, label %39

39:                                               ; preds = %31
  %40 = load ptr, ptr %10, align 8, !tbaa !13
  %41 = getelementptr inbounds nuw i8, ptr %40, i32 1
  store ptr %41, ptr %10, align 8, !tbaa !13
  br label %43

42:                                               ; preds = %31
  br label %27, !llvm.loop !36

43:                                               ; preds = %39, %27
  br label %44

44:                                               ; preds = %43, %18
  %45 = load ptr, ptr %10, align 8, !tbaa !13
  %46 = load ptr, ptr %8, align 8, !tbaa !13
  %47 = load ptr, ptr %9, align 8, !tbaa !14
  %48 = call i32 @mbc_enc_len(ptr noundef %45, ptr noundef %46, ptr noundef %47)
  store i32 %48, ptr %11, align 4, !tbaa !17
  %49 = load ptr, ptr %10, align 8, !tbaa !13
  %50 = load i32, ptr %11, align 4, !tbaa !17
  %51 = sext i32 %50 to i64
  %52 = getelementptr inbounds i8, ptr %49, i64 %51
  %53 = load ptr, ptr %7, align 8, !tbaa !13
  %54 = icmp ugt ptr %52, %53
  br i1 %54, label %55, label %57

55:                                               ; preds = %44
  %56 = load ptr, ptr %10, align 8, !tbaa !13
  store ptr %56, ptr %5, align 8
  store i32 1, ptr %12, align 4
  br label %70

57:                                               ; preds = %44
  %58 = load i32, ptr %11, align 4, !tbaa !17
  %59 = load ptr, ptr %10, align 8, !tbaa !13
  %60 = sext i32 %58 to i64
  %61 = getelementptr inbounds i8, ptr %59, i64 %60
  store ptr %61, ptr %10, align 8, !tbaa !13
  %62 = load ptr, ptr %10, align 8, !tbaa !13
  %63 = load ptr, ptr %7, align 8, !tbaa !13
  %64 = load ptr, ptr %10, align 8, !tbaa !13
  %65 = ptrtoint ptr %63 to i64
  %66 = ptrtoint ptr %64 to i64
  %67 = sub i64 %65, %66
  %68 = and i64 %67, -2
  %69 = getelementptr inbounds i8, ptr %62, i64 %68
  store ptr %69, ptr %5, align 8
  store i32 1, ptr %12, align 4
  br label %70

70:                                               ; preds = %57, %55, %16
  call void @llvm.lifetime.end.p0(i64 4, ptr %11) #4
  call void @llvm.lifetime.end.p0(i64 8, ptr %10) #4
  %71 = load ptr, ptr %5, align 8
  ret ptr %71
}